target datalayout = "e-m:e-p270:32:32-p271:32:32-p272:64:64-i64:64-i128:128-f80:128-n8:16:32:64-S128"
target triple = "x86_64-unknown-linux-gnu"

%"class.icu_75::PluralFormat" = type { %"class.icu_75::Format.base", [6 x i8], %"class.icu_75::Locale", %"class.icu_75::MessagePattern", ptr, double, %"class.icu_75::PluralFormat::PluralSelectorAdapter" }
%"class.icu_75::Format.base" = type <{ %"class.icu_75::UObject", [157 x i8], [157 x i8] }>
%"class.icu_75::UObject" = type { ptr }
%"class.icu_75::Locale" = type <{ %"class.icu_75::UObject", [12 x i8], [6 x i8], [4 x i8], [2 x i8], i32, [4 x i8], ptr, [157 x i8], [3 x i8], ptr, i8, [7 x i8] }>
%"class.icu_75::MessagePattern" = type <{ %"class.icu_75::UObject", i32, [4 x i8], %"class.icu_75::UnicodeString", ptr, ptr, i32, [4 x i8], ptr, ptr, i32, i8, i8, i8, i8 }>
%"class.icu_75::UnicodeString" = type { %"class.icu_75::Replaceable", %"union.icu_75::UnicodeString::StackBufferOrFields" }
%"class.icu_75::Replaceable" = type { %"class.icu_75::UObject" }
%"union.icu_75::UnicodeString::StackBufferOrFields" = type { %struct.anon.0, [32 x i8] }
%struct.anon.0 = type { i16, i32, i32, ptr }
%"class.icu_75::PluralFormat::PluralSelectorAdapter" = type { %"class.icu_75::PluralFormat::PluralSelector", ptr }
%"class.icu_75::PluralFormat::PluralSelector" = type { ptr }

; Function Attrs: mustprogress nounwind uwtable
define internal noundef signext i8 @_ZL9U_FAILURE10UErrorCode(i32 noundef %code) #0 {
entry:
  %code.addr = alloca i32, align 4
  store i32 %code, ptr %code.addr, align 4
  %0 = load i32, ptr %code.addr, align 4
  %cmp = icmp sgt i32 %0, 0
  %conv = zext i1 %cmp to i8
  ret i8 %conv
}

; Function Attrs: mustprogress uwtable
define void @_ZN6icu_7512PluralFormat12applyPatternERKNS_13UnicodeStringER10UErrorCode(ptr noundef nonnull align 8 dereferenceable(712) %this, ptr noundef nonnull align 8 dereferenceable(64) %newPattern, ptr noundef nonnull align 4 dereferenceable(4) %status) #1 align 2 {
entry:
  %this.addr = alloca ptr, align 8
  %newPattern.addr = alloca ptr, align 8
  %status.addr = alloca ptr, align 8
  store ptr %this, ptr %this.addr, align 8
  store ptr %newPattern, ptr %newPattern.addr, align 8
  store ptr %status, ptr %status.addr, align 8
  %this1 = load ptr, ptr %this.addr, align 8
  %msgPattern = getelementptr inbounds %"class.icu_75::PluralFormat", ptr %this1, i32 0, i32 3
  %0 = load ptr, ptr %newPattern.addr, align 8
  %1 = load ptr, ptr %status.addr, align 8
  %call = call noundef nonnull align 8 dereferenceable(127) ptr @_ZN6icu_7514MessagePattern16parsePluralStyleERKNS_13UnicodeStringEP11UParseErrorR10UErrorCode(ptr noundef nonnull align 8 dereferenceable(127) %msgPattern, ptr noundef nonnull align 8 dereferenceable(64) %0, ptr noundef null, ptr noundef nonnull align 4 dereferenceable(4) %1)
  %2 = load ptr, ptr %status.addr, align 8
  %3 = load i32, ptr %2, align 4
  %call2 = call noundef signext i8 @_ZL9U_FAILURE10UErrorCode(i32 noundef %3)
  %tobool = icmp ne i8 %call2, 0
  br i1 %tobool, label %if.then, label %if.end

if.then:                                          ; preds = %entry
  %msgPattern3 = getelementptr inbounds %"class.icu_75::PluralFormat", ptr %this1, i32 0, i32 3
  call void @_ZN6icu_7514MessagePattern5clearEv(ptr noundef nonnull align 8 dereferenceable(127) %msgPattern3)
  %offset = getelementptr inbounds %"class.icu_75::PluralFormat", ptr %this1, i32 0, i32 5
  store double 0.000000e+00, ptr %offset, align 8
  br label %return

if.end:                                           ; preds = %entry
  %msgPattern4 = getelementptr inbounds %"class.icu_75::PluralFormat", ptr %this1, i32 0, i32 3
  %call5 = call noundef double @_ZNK6icu_7514MessagePattern15getPluralOffsetEi(ptr noundef nonnull align 8 dereferenceable(127) %msgPattern4, i32 noundef 0)
  %offset6 = getelementptr inbounds %"class.icu_75::PluralFormat", ptr %this1, i32 0, i32 5
  store double %call5, ptr %offset6, align 8
  br label %return

return:                                           ; preds = %if.end, %if.then
  ret void
}