; Function Attrs: mustprogress uwtable
define void @_ZN6icu_7512PluralFormat12applyPatternERKNS_13UnicodeStringER10UErrorCode(ptr noundef nonnull align 8 dereferenceable(712) %this, ptr noundef nonnull align 8 dereferenceable(64) %newPattern, ptr noundef nonnull align 4 dereferenceable(4) %status) local_unnamed_addr #1 align 2 {
entry:
  %msgPattern = getelementptr inbounds i8, ptr %this, i64 552
  %call = tail call noundef nonnull align 8 dereferenceable(127) ptr @_ZN6icu_7514MessagePattern16parsePluralStyleERKNS_13UnicodeStringEP11UParseErrorR10UErrorCode(ptr noundef nonnull align 8 dereferenceable(127) %msgPattern, ptr noundef nonnull align 8 dereferenceable(64) %newPattern, ptr noundef null, ptr noundef nonnull align 4 dereferenceable(4) %status)
  %0 = load i32, ptr %status, align 4
  %cmp.i = icmp slt i32 %0, 1
  br i1 %cmp.i, label %if.end, label %if.then

if.then:                                          ; preds = %entry
  tail call void @_ZN6icu_7514MessagePattern5clearEv(ptr noundef nonnull align 8 dereferenceable(127) %msgPattern)
  br label %return

if.end:                                           ; preds = %entry
  %call5 = tail call noundef double @_ZNK6icu_7514MessagePattern15getPluralOffsetEi(ptr noundef nonnull align 8 dereferenceable(127) %msgPattern, i32 noundef 0)
  br label %return

return:                                           ; preds = %if.end, %if.then
  %.sink = phi double [ %call5, %if.end ], [ 0.000000e+00, %if.then ]
  %1 = getelementptr inbounds i8, ptr %this, i64 688
  store double %.sink, ptr %1, align 8
  ret void
}